; Function Attrs: mustprogress nofree norecurse nosync nounwind willreturn memory(argmem: read) uwtable
define { ptr, i64 } @_ZN7rocksdb20PlainTableFileReader13GetFromBufferEPNS0_6BufferEjj(ptr noundef nonnull readnone align 8 captures(none) dereferenceable(48) %0, ptr noundef readonly captures(none) %1, i32 noundef %2, i32 noundef %3) local_unnamed_addr #8 align 2 {
  %5 = load ptr, ptr %1, align 8, !tbaa !37
  %6 = getelementptr inbounds nuw i8, ptr %1, i64 8
  %7 = load i32, ptr %6, align 8, !tbaa !106
  %8 = sub i32 %2, %7
  %9 = zext i32 %8 to i64
  %10 = getelementptr inbounds nuw i8, ptr %5, i64 %9
  %11 = zext i32 %3 to i64
  %.fca.0.insert = insertvalue { ptr, i64 } poison, ptr %10, 0
  %.fca.1.insert = insertvalue { ptr, i64 } %.fca.0.insert, i64 %11, 1
  ret { ptr, i64 } %.fca.1.insert
}